Certificate:
    Data:
        Version: 3 (0x2)
        Serial Number: 1 (0x1)
    Signature Algorithm: sha256WithRSAEncryption
        Issuer: CN=localhost
        Validity
            Not Before: Oct 24 01:17:23 2018 GMT
            Not After : Oct 21 01:17:23 2028 GMT
        Subject: CN=localhost
        Subject Public Key Info:
            Public Key Algorithm: rsaEncryption
                Public-Key: (2048 bit)
                Modulus:
                    00:d2:63:f1:92:b4:4f:fc:25:3a:7b:e0:ca:15:15:
                    7f:1d:29:1b:62:9c:88:23:f9:26:9d:d1:48:d1:9d:
                    3a:92:c7:90:cc:76:2e:fa:5d:db:5e:89:d0:54:47:
                    e4:ed:c0:c0:4e:96:93:b1:12:14:da:64:21:e3:43:
                    a8:66:b1:e6:89:35:38:19:ec:74:2a:81:f6:32:b6:
                    1e:8a:52:34:70:1a:56:23:b3:b8:ee:f1:ce:fa:ac:
                    03:f4:70:66:6c:1a:fc:d5:ed:dd:ee:d7:95:9f:f6:
                    de:b3:95:0b:d2:eb:e6:e3:7d:7f:d8:4b:a2:13:06:
                    88:e0:83:0b:50:46:ea:a1:34:86:b0:52:c5:c1:04:
                    1c:41:39:33:27:14:02:3d:14:cb:6f:44:8e:5f:f3:
                    a8:13:4a:8e:ed:e2:36:24:e8:fe:f1:3d:18:38:e7:
                    ac:d0:9f:a1:db:23:7d:43:d9:09:7a:b4:8a:ae:64:
                    5c:1e:c8:5c:1f:0b:9b:56:71:06:c1:99:dc:d4:1a:
                    24:d5:08:a1:f6:68:cb:5a:f8:bc:be:08:d8:b4:dd:
                    61:9b:9d:a1:39:84:2f:11:2f:10:6d:c7:a5:5d:6e:
                    2e:b8:b0:78:25:0a:32:05:e0:32:b8:fa:f5:22:69:
                    ab:35:06:88:93:e2:c8:c1:d5:8e:de:37:00:47:91:
                    41:91
                Exponent: 65537 (0x10001)
        X509v3 extensions:
            X509v3 Basic Constraints: 
                CA:FALSE
            X509v3 Subject Key Identifier: 
                B1:07:41:E0:14:30:1D:22:8C:AF:B1:7D:A2:63:4A:97:7C:35:F5:BF
            X509v3 Authority Key Identifier: 
                keyid:BC:14:C9:12:C8:D7:9B:E3:2D:46:2D:D6:38:8C:CD:96:36:73:DC:FD
                DirName:/CN=localhost
                serial:C6:80:09:FB:94:D2:21:4E

            X509v3 Extended Key Usage: 
                TLS Web Server Authentication
            X509v3 Key Usage: 
                Digital Signature, Key Encipherment
    Signature Algorithm: sha256WithRSAEncryption
         9f:b8:22:59:28:7f:dc:57:fe:c6:41:5c:f0:4e:83:32:8d:ff:
         d4:dd:ee:8f:8d:2c:a7:c6:69:29:5b:39:7a:5b:e1:bc:74:02:
         8f:c8:4b:83:72:fb:aa:a4:dc:71:e7:f0:fd:53:f4:b7:0a:86:
         0f:bd:20:25:17:1c:a8:c4:ed:d4:c1:5c:18:72:d2:18:09:6c:
         79:c4:5b:a3:7a:76:55:63:23:07:ca:d8:be:e1:7d:b0:ef:45:
         96:35:30:a2:df:19:09:e5:9a:5e:28:29:0a:ef:16:b7:4e:d0:
         50:59:58:f2:f0:ed:51:8c:d3:34:ee:bd:06:18:f6:43:16:1d:
         5a:1b:6e:e0:62:a0:35:c0:c8:29:03:c5:ee:a6:c7:12:33:04:
         2b:fc:bf:91:e7:4c:76:02:0a:d3:1a:c6:ce:fe:6a:70:86:0b:
         4f:89:02:a8:21:5c:ef:be:06:4d:5d:fe:39:fe:80:8d:03:6a:
         9f:1c:b5:77:09:87:3e:33:a6:a6:e4:71:71:1b:4d:e4:6c:d6:
         7a:e2:1e:0c:8d:c0:dd:ca:f3:08:bb:1a:62:fc:5f:55:cb:5e:
         75:aa:c8:a5:db:04:51:f9:1b:4e:02:bd:33:e8:6f:6f:2b:86:
         17:63:27:db:5c:2c:6c:77:0c:30:32:3e:95:b4:a0:1d:0d:3a:
         06:26:e3:48
-----BEGIN CERTIFICATE-----
MIIDOTCCAiGgAwIBAgIBATANBgkqhkiG9w0BAQsFADAUMRIwEAYDVQQDDAlsb2Nh
bGhvc3QwHhcNMTgxMDI0MDExNzIzWhcNMjgxMDIxMDExNzIzWjAUMRIwEAYDVQQD
DAlsb2NhbGhvc3QwggEiMA0GCSqGSIb3DQEBAQUAA4IBDwAwggEKAoIBAQDSY/GS
tE/8JTp74MoVFX8dKRtinIgj+Sad0UjRnTqSx5DMdi76XdteidBUR+TtwMBOlpOx
EhTaZCHjQ6hmseaJNTgZ7HQqgfYyth6KUjRwGlYjs7ju8c76rAP0cGZsGvzV7d3u
15Wf9t6zlQvS6+bjfX/YS6ITBojggwtQRuqhNIawUsXBBBxBOTMnFAI9FMtvRI5f
86gTSo7t4jYk6P7xPRg456zQn6HbI31D2Ql6tIquZFweyFwfC5tWcQbBmdzUGiTV
CKH2aMta+Ly+CNi03WGbnaE5hC8RLxBtx6Vdbi64sHglCjIF4DK4+vUiaas1BoiT
4sjB1Y7eNwBHkUGRAgMBAAGjgZUwgZIwCQYDVR0TBAIwADAdBgNVHQ4EFgQUsQdB
4BQwHSKMr7F9omNKl3w19b8wRAYDVR0jBD0wO4AUvBTJEsjXm+MtRi3WOIzNljZz
3P2hGKQWMBQxEjAQBgNVBAMMCWxvY2FsaG9zdIIJAMaACfuU0iFOMBMGA1UdJQQM
MAoGCCsGAQUFBwMBMAsGA1UdDwQEAwIFoDANBgkqhkiG9w0BAQsFAAOCAQEAn7gi
WSh/3Ff+xkFc8E6DMo3/1N3uj40sp8ZpKVs5elvhvHQCj8hLg3L7qqTccefw/VP0
twqGD70gJRccqMTt1MFcGHLSGAlsecRbo3p2VWMjB8rYvuF9sO9FljUwot8ZCeWa
XigpCu8Wt07QUFlY8vDtUYzTNO69Bhj2QxYdWhtu4GKgNcDIKQPF7qbHEjMEK/y/
kedMdgIK0xrGzv5qcIYLT4kCqCFc774GTV3+Of6AjQNqnxy1dwmHPjOmpuRxcRtN
5GzWeuIeDI3A3crzCLsaYvxfVctedarIpdsEUfkbTgK9M+hvbyuGF2Mn21wsbHcM
MDI+lbSgHQ06BibjSA==
-----END CERTIFICATE-----
