Certificate:
    Data:
        Version: 3 (0x2)
        Serial Number: 2 (0x2)
    Signature Algorithm: sha256WithRSAEncryption
        Issuer: CN=localhost
        Validity
            Not Before: Oct 24 01:17:23 2018 GMT
            Not After : Oct 21 01:17:23 2028 GMT
        Subject: CN=host
        Subject Public Key Info:
            Public Key Algorithm: rsaEncryption
                Public-Key: (2048 bit)
                Modulus:
                    00:9c:d0:22:1b:6c:64:0c:6e:c8:d4:f2:2b:f3:fc:
                    b5:cc:f7:4a:77:d4:f0:9d:6a:83:dd:a3:1e:c2:26:
                    ae:a3:81:3f:bb:c3:3f:6a:b0:00:cb:f4:9e:2a:2c:
                    b2:b4:51:07:d6:cf:e8:fa:27:45:64:93:cf:cb:0f:
                    8f:f6:e1:66:45:d6:ca:c6:d5:4b:81:3e:ce:93:ec:
                    67:84:99:9d:db:e2:5c:16:fd:5b:2b:38:9d:83:5e:
                    b8:97:30:f8:00:82:57:57:67:ae:21:9a:31:67:1a:
                    7f:de:96:c2:d2:1a:4d:b9:b0:e5:2c:18:70:3e:0e:
                    0b:3a:63:bf:3d:33:f0:53:0f:86:cb:ae:d9:09:0f:
                    26:5e:6f:21:58:0a:69:71:ec:e2:c1:59:a4:ee:4d:
                    6a:22:dd:27:76:a5:71:16:cb:c9:1c:70:fe:53:f6:
                    7f:04:35:16:df:27:61:5a:f7:39:d8:1b:ad:8b:a6:
                    cc:46:76:46:60:25:7e:50:3f:4a:a2:8e:92:f2:90:
                    8a:7f:64:e2:1d:de:49:27:37:b2:bd:9b:3c:8c:ed:
                    54:9c:3e:b9:d5:f7:64:85:ed:52:e2:62:db:de:9e:
                    aa:b8:a4:5d:8d:a0:9e:13:fb:37:3b:66:de:9b:18:
                    13:7c:d0:f6:02:67:ff:0d:6c:1d:97:24:7c:11:04:
                    0e:8d
                Exponent: 65537 (0x10001)
        X509v3 extensions:
            X509v3 Basic Constraints: 
                CA:FALSE
            X509v3 Subject Key Identifier: 
                EC:70:69:10:7F:D5:8C:56:E3:B6:07:52:5C:DD:53:61:DF:0C:D4:16
            X509v3 Authority Key Identifier: 
                keyid:BC:14:C9:12:C8:D7:9B:E3:2D:46:2D:D6:38:8C:CD:96:36:73:DC:FD
                DirName:/CN=localhost
                serial:C6:80:09:FB:94:D2:21:4E

            X509v3 Extended Key Usage: 
                TLS Web Client Authentication
            X509v3 Key Usage: 
                Digital Signature
    Signature Algorithm: sha256WithRSAEncryption
         a8:e8:3c:f4:07:4f:04:70:ab:5e:41:66:b4:86:ce:69:fa:34:
         cf:d4:65:97:52:8b:b5:a8:9f:4a:42:cd:57:86:3e:00:07:cb:
         cb:d9:b9:37:02:06:22:6d:bf:19:7d:52:2b:52:ea:45:fa:45:
         ea:a3:70:57:d1:a1:89:d1:e0:00:78:83:82:03:ab:25:ea:28:
         ce:19:7a:c3:75:9b:31:aa:20:ac:83:ee:00:ee:b4:c1:25:fd:
         df:23:1f:92:55:58:17:69:d4:ee:a8:4a:79:0b:6e:ac:be:c9:
         96:c7:61:a1:2d:25:55:06:08:2a:ad:f1:3e:83:b4:46:21:c9:
         f9:ad:0a:37:55:23:7e:52:fd:60:fd:d8:15:98:41:c3:ee:dd:
         aa:49:6d:6b:67:7f:21:28:a9:0f:df:ab:64:87:81:20:1e:70:
         a8:c1:6e:1f:69:3d:d6:36:4a:cc:d3:9a:89:02:35:d9:f0:97:
         4b:c3:50:d7:e7:1f:b6:26:eb:21:da:5e:94:17:7f:33:21:16:
         64:f8:78:7b:6e:e8:2d:5d:b2:3c:13:ff:dc:c9:fb:42:2f:90:
         ee:fc:5b:bb:ee:b4:78:0c:20:e7:41:24:04:8a:74:90:b8:f8:
         b1:21:b6:fe:7c:eb:78:63:fb:9b:fb:af:d0:37:79:ff:e7:3f:
         1f:b0:d6:62
-----BEGIN CERTIFICATE-----
MIIDNDCCAhygAwIBAgIBAjANBgkqhkiG9w0BAQsFADAUMRIwEAYDVQQDDAlsb2Nh
bGhvc3QwHhcNMTgxMDI0MDExNzIzWhcNMjgxMDIxMDExNzIzWjAPMQ0wCwYDVQQD
DARob3N0MIIBIjANBgkqhkiG9w0BAQEFAAOCAQ8AMIIBCgKCAQEAnNAiG2xkDG7I
1PIr8/y1zPdKd9TwnWqD3aMewiauo4E/u8M/arAAy/SeKiyytFEH1s/o+idFZJPP
yw+P9uFmRdbKxtVLgT7Ok+xnhJmd2+JcFv1bKzidg164lzD4AIJXV2euIZoxZxp/
3pbC0hpNubDlLBhwPg4LOmO/PTPwUw+Gy67ZCQ8mXm8hWAppceziwVmk7k1qIt0n
dqVxFsvJHHD+U/Z/BDUW3ydhWvc52Buti6bMRnZGYCV+UD9Koo6S8pCKf2TiHd5J
JzeyvZs8jO1UnD651fdkhe1S4mLb3p6quKRdjaCeE/s3O2bemxgTfND2Amf/DWwd
lyR8EQQOjQIDAQABo4GVMIGSMAkGA1UdEwQCMAAwHQYDVR0OBBYEFOxwaRB/1YxW
47YHUlzdU2HfDNQWMEQGA1UdIwQ9MDuAFLwUyRLI15vjLUYt1jiMzZY2c9z9oRik
FjAUMRIwEAYDVQQDDAlsb2NhbGhvc3SCCQDGgAn7lNIhTjATBgNVHSUEDDAKBggr
BgEFBQcDAjALBgNVHQ8EBAMCB4AwDQYJKoZIhvcNAQELBQADggEBAKjoPPQHTwRw
q15BZrSGzmn6NM/UZZdSi7Won0pCzVeGPgAHy8vZuTcCBiJtvxl9UitS6kX6Reqj
cFfRoYnR4AB4g4IDqyXqKM4ZesN1mzGqIKyD7gDutMEl/d8jH5JVWBdp1O6oSnkL
bqy+yZbHYaEtJVUGCCqt8T6DtEYhyfmtCjdVI35S/WD92BWYQcPu3apJbWtnfyEo
qQ/fq2SHgSAecKjBbh9pPdY2SszTmokCNdnwl0vDUNfnH7Ym6yHaXpQXfzMhFmT4
eHtu6C1dsjwT/9zJ+0IvkO78W7vutHgMIOdBJASKdJC4+LEhtv5863hj+5v7r9A3
ef/nPx+w1mI=
-----END CERTIFICATE-----
